target datalayout = "e-m:e-p270:32:32-p271:32:32-p272:64:64-i64:64-i128:128-f80:128-n8:16:32:64-S128"
target triple = "x86_64-pc-linux-gnu"

%struct.ssl_connection_st = type { %struct.ssl_st, ptr, i32, ptr, ptr, ptr, i32, ptr, i32, i32, i32, i32, %struct.OSSL_TIME, %struct.OSSL_TIME, %struct.ossl_statem_st, i32, ptr, ptr, i64, i64, i64, %struct.ossl_quic_tls_callbacks_st, ptr, ptr, %struct.anon, ptr, ptr, ptr, i32, ptr, %struct.ssl_dane_st, ptr, ptr, ptr, ptr, i32, [64 x i8], [64 x i8], [64 x i8], [64 x i8], [64 x i8], [64 x i8], [64 x i8], [64 x i8], [64 x i8], [64 x i8], [64 x i8], [64 x i8], ptr, [64 x i8], i64, i32, i64, [32 x i8], ptr, ptr, ptr, i64, ptr, [32 x i8], i64, i32, ptr, ptr, i32, i32, ptr, ptr, ptr, ptr, ptr, i64, ptr, ptr, i64, i32, i32, i32, i64, i32, i32, i64, i64, i64, %struct.anon.1, ptr, i32, ptr, ptr, ptr, i32, ptr, ptr, ptr, i32, i32, i32, i32, ptr, i64, i32, ptr, %struct.srp_ctx_st, ptr, %struct.record_layer_st, ptr, ptr, ptr, ptr, i64, i32, i32, i32, i64, i64, i64, ptr, ptr, ptr, ptr, ptr, i64, ptr, i64, ptr, i64 }
%struct.ssl_st = type { i32, ptr, ptr, ptr, %struct.CRYPTO_REF_COUNT, ptr, %struct.crypto_ex_data_st }
%struct.CRYPTO_REF_COUNT = type { i32 }
%struct.crypto_ex_data_st = type { ptr, ptr }
%struct.OSSL_TIME = type { i64 }
%struct.ossl_statem_st = type { i32, i32, i32, i32, i32, i32, i32, i32, i32, i32, i32, i32, i32, ptr, ptr, ptr, i8 }
%struct.ossl_quic_tls_callbacks_st = type { ptr, ptr, ptr, ptr, ptr, ptr }
%struct.anon = type { i64, [32 x i8], [32 x i8], ptr, ptr, i32, i32, i32, i32, [2 x i8], i32, i32, i32, i32, %struct.anon.0, [64 x i8], i64, [64 x i8], i64, i32, i32, ptr, i64, ptr, i64, i32, i8, i8, i16, ptr, i16 }
%struct.anon.0 = type { [128 x i8], i64, [128 x i8], i64, i64, i32, ptr, ptr, [4 x ptr], [4 x i16], i64, i32, ptr, i64, ptr, i64, ptr, ptr, ptr, i32, i64, ptr, i32, ptr, i64, ptr, i64, ptr, i64, ptr, ptr, ptr, ptr, i64, i64, ptr, ptr, i32, i32, i32, i32 }
%struct.ssl_dane_st = type { ptr, ptr, ptr, ptr, ptr, i32, i32, i32, i64 }
%struct.anon.1 = type { [29 x i8], ptr, ptr, ptr, i32, ptr, i16, i32, %struct.anon.2, i32, i32, i64, ptr, i64, ptr, i64, ptr, i64, ptr, i64, ptr, i64, ptr, ptr, ptr, ptr, ptr, ptr, ptr, i64, ptr, i64, i32, i32, i32, i32, ptr, i64, i32, i8, i32, [4 x i32], i32, i8, i8, i8, i8 }
%struct.anon.2 = type { ptr, ptr, ptr, i64 }
%struct.srp_ctx_st = type { ptr, ptr, ptr, ptr, ptr, ptr, ptr, ptr, ptr, ptr, ptr, ptr, ptr, ptr, i32, i64 }
%struct.record_layer_st = type { ptr, ptr, ptr, ptr, ptr, ptr, ptr, ptr, i64, i32, i64, [4 x i8], i64, i64, i8, ptr, i32, ptr, ptr, ptr, i64, i64, i64, i64, [32 x %struct.tls_record_st] }
%struct.tls_record_st = type { ptr, i32, i8, ptr, ptr, i64, i64, i16, [8 x i8] }
%struct.buf_mem_st = type { i64, ptr, i64, i64 }

; Function Attrs: nounwind uwtable
define i32 @dtls_get_message_body(ptr noundef %0, ptr noundef %1) #0 {
  %3 = alloca i32, align 4
  %4 = alloca ptr, align 8
  %5 = alloca ptr, align 8
  %6 = alloca ptr, align 8
  %7 = alloca i64, align 8
  %8 = alloca i32, align 4
  store ptr %0, ptr %4, align 8, !tbaa !19
  store ptr %1, ptr %5, align 8, !tbaa !116
  call void @llvm.lifetime.start.p0(i64 8, ptr %6) #6
  %9 = load ptr, ptr %4, align 8, !tbaa !19
  %10 = getelementptr inbounds nuw %struct.ssl_connection_st, ptr %9, i32 0, i32 16
  %11 = load ptr, ptr %10, align 8, !tbaa !95
  %12 = getelementptr inbounds nuw %struct.buf_mem_st, ptr %11, i32 0, i32 1
  %13 = load ptr, ptr %12, align 8, !tbaa !96
  store ptr %13, ptr %6, align 8, !tbaa !99
  call void @llvm.lifetime.start.p0(i64 8, ptr %7) #6
  %14 = load ptr, ptr %4, align 8, !tbaa !19
  %15 = getelementptr inbounds nuw %struct.ssl_connection_st, ptr %14, i32 0, i32 18
  %16 = load i64, ptr %15, align 8, !tbaa !85
  %17 = add i64 %16, 12
  store i64 %17, ptr %7, align 8, !tbaa !91
  %18 = load ptr, ptr %4, align 8, !tbaa !19
  %19 = getelementptr inbounds nuw %struct.ssl_connection_st, ptr %18, i32 0, i32 24
  %20 = getelementptr inbounds nuw %struct.anon, ptr %19, i32 0, i32 14
  %21 = getelementptr inbounds nuw %struct.anon.0, ptr %20, i32 0, i32 5
  %22 = load i32, ptr %21, align 8, !tbaa !113
  %23 = icmp eq i32 %22, 257
  br i1 %23, label %24, label %25

24:                                               ; preds = %2
  br label %84

25:                                               ; preds = %2
  %26 = load ptr, ptr %4, align 8, !tbaa !19
  %27 = getelementptr inbounds nuw %struct.ssl_connection_st, ptr %26, i32 0, i32 16
  %28 = load ptr, ptr %27, align 8, !tbaa !95
  %29 = getelementptr inbounds nuw %struct.buf_mem_st, ptr %28, i32 0, i32 1
  %30 = load ptr, ptr %29, align 8, !tbaa !96
  %31 = load i8, ptr %30, align 1, !tbaa !21
  %32 = sext i8 %31 to i32
  %33 = icmp eq i32 %32, 20
  br i1 %33, label %34, label %39

34:                                               ; preds = %25
  %35 = load ptr, ptr %4, align 8, !tbaa !19
  %36 = call i32 @ssl3_take_mac(ptr noundef %35)
  %37 = icmp ne i32 %36, 0
  br i1 %37, label %39, label %38

38:                                               ; preds = %34
  store i32 0, ptr %3, align 4
  store i32 1, ptr %8, align 4
  br label %89

39:                                               ; preds = %34, %25
  %40 = load ptr, ptr %4, align 8, !tbaa !19
  %41 = getelementptr inbounds nuw %struct.ssl_connection_st, ptr %40, i32 0, i32 2
  %42 = load i32, ptr %41, align 8, !tbaa !102
  %43 = icmp eq i32 %42, 256
  br i1 %43, label %44, label %49

44:                                               ; preds = %39
  %45 = load ptr, ptr %6, align 8, !tbaa !99
  %46 = getelementptr inbounds i8, ptr %45, i64 12
  store ptr %46, ptr %6, align 8, !tbaa !99
  %47 = load i64, ptr %7, align 8, !tbaa !91
  %48 = sub i64 %47, 12
  store i64 %48, ptr %7, align 8, !tbaa !91
  br label %49

49:                                               ; preds = %44, %39
  %50 = load ptr, ptr %4, align 8, !tbaa !19
  %51 = load ptr, ptr %6, align 8, !tbaa !99
  %52 = load i64, ptr %7, align 8, !tbaa !91
  %53 = call i32 @ssl3_finish_mac(ptr noundef %50, ptr noundef %51, i64 noundef %52)
  %54 = icmp ne i32 %53, 0
  br i1 %54, label %56, label %55

55:                                               ; preds = %49
  store i32 0, ptr %3, align 4
  store i32 1, ptr %8, align 4
  br label %89

56:                                               ; preds = %49
  %57 = load ptr, ptr %4, align 8, !tbaa !19
  %58 = getelementptr inbounds nuw %struct.ssl_connection_st, ptr %57, i32 0, i32 26
  %59 = load ptr, ptr %58, align 8, !tbaa !106
  %60 = icmp ne ptr %59, null
  br i1 %60, label %61, label %83

61:                                               ; preds = %56
  %62 = load ptr, ptr %4, align 8, !tbaa !19
  %63 = getelementptr inbounds nuw %struct.ssl_connection_st, ptr %62, i32 0, i32 26
  %64 = load ptr, ptr %63, align 8, !tbaa !106
  %65 = load ptr, ptr %4, align 8, !tbaa !19
  %66 = getelementptr inbounds nuw %struct.ssl_connection_st, ptr %65, i32 0, i32 2
  %67 = load i32, ptr %66, align 8, !tbaa !102
  %68 = load ptr, ptr %4, align 8, !tbaa !19
  %69 = getelementptr inbounds nuw %struct.ssl_connection_st, ptr %68, i32 0, i32 16
  %70 = load ptr, ptr %69, align 8, !tbaa !95
  %71 = getelementptr inbounds nuw %struct.buf_mem_st, ptr %70, i32 0, i32 1
  %72 = load ptr, ptr %71, align 8, !tbaa !96
  %73 = load ptr, ptr %4, align 8, !tbaa !19
  %74 = getelementptr inbounds nuw %struct.ssl_connection_st, ptr %73, i32 0, i32 18
  %75 = load i64, ptr %74, align 8, !tbaa !85
  %76 = add i64 %75, 12
  %77 = load ptr, ptr %4, align 8, !tbaa !19
  %78 = getelementptr inbounds nuw %struct.ssl_connection_st, ptr %77, i32 0, i32 1
  %79 = load ptr, ptr %78, align 8, !tbaa !25
  %80 = load ptr, ptr %4, align 8, !tbaa !19
  %81 = getelementptr inbounds nuw %struct.ssl_connection_st, ptr %80, i32 0, i32 27
  %82 = load ptr, ptr %81, align 8, !tbaa !107
  call void %64(i32 noundef 0, i32 noundef %67, i32 noundef 22, ptr noundef %72, i64 noundef %76, ptr noundef %79, ptr noundef %82)
  br label %83

83:                                               ; preds = %61, %56
  br label %84

84:                                               ; preds = %83, %24
  %85 = load ptr, ptr %4, align 8, !tbaa !19
  %86 = getelementptr inbounds nuw %struct.ssl_connection_st, ptr %85, i32 0, i32 18
  %87 = load i64, ptr %86, align 8, !tbaa !85
  %88 = load ptr, ptr %5, align 8, !tbaa !116
  store i64 %87, ptr %88, align 8, !tbaa !91
  store i32 1, ptr %3, align 4
  store i32 1, ptr %8, align 4
  br label %89

89:                                               ; preds = %84, %55, %38
  call void @llvm.lifetime.end.p0(i64 8, ptr %7) #6
  call void @llvm.lifetime.end.p0(i64 8, ptr %6) #6
  %90 = load i32, ptr %3, align 4
  ret i32 %90
}