; Function Attrs: nounwind uwtable
define range(i32 0, 2) i32 @dtls_get_message_body(ptr noundef %0, ptr noundef writeonly captures(none) %1) local_unnamed_addr #0 {
  %3 = getelementptr inbounds nuw i8, ptr %0, i64 248
  %4 = load ptr, ptr %3, align 8, !tbaa !91
  %5 = getelementptr inbounds nuw i8, ptr %4, i64 8
  %6 = load ptr, ptr %5, align 8, !tbaa !92
  %7 = getelementptr inbounds nuw i8, ptr %0, i64 264
  %8 = load i64, ptr %7, align 8, !tbaa !79
  %9 = add i64 %8, 12
  %10 = getelementptr inbounds nuw i8, ptr %0, i64 760
  %11 = load i32, ptr %10, align 8, !tbaa !123
  %12 = icmp eq i32 %11, 257
  br i1 %12, label %36, label %13

13:                                               ; preds = %2
  %14 = load i8, ptr %6, align 1, !tbaa !95
  %15 = icmp eq i8 %14, 20
  br i1 %15, label %16, label %18

16:                                               ; preds = %13
  %17 = tail call i32 @ssl3_take_mac(ptr noundef nonnull %0) #9
  %.not = icmp eq i32 %17, 0
  br i1 %.not, label %38, label %18

18:                                               ; preds = %16, %13
  %19 = getelementptr inbounds nuw i8, ptr %0, i64 72
  %20 = load i32, ptr %19, align 8, !tbaa !100
  %21 = icmp eq i32 %20, 256
  %spec.select.idx = select i1 %21, i64 12, i64 0
  %spec.select = getelementptr inbounds nuw i8, ptr %6, i64 %spec.select.idx
  %spec.select25 = select i1 %21, i64 %8, i64 %9
  %22 = tail call i32 @ssl3_finish_mac(ptr noundef nonnull %0, ptr noundef nonnull %spec.select, i64 noundef %spec.select25) #9
  %.not23 = icmp eq i32 %22, 0
  br i1 %.not23, label %38, label %23

23:                                               ; preds = %18
  %24 = getelementptr inbounds nuw i8, ptr %0, i64 1272
  %25 = load ptr, ptr %24, align 8, !tbaa !101
  %.not24 = icmp eq ptr %25, null
  %.pre26 = load i64, ptr %7, align 8, !tbaa !79
  br i1 %.not24, label %36, label %26

26:                                               ; preds = %23
  %27 = load i32, ptr %19, align 8, !tbaa !100
  %28 = load ptr, ptr %3, align 8, !tbaa !91
  %29 = getelementptr inbounds nuw i8, ptr %28, i64 8
  %30 = load ptr, ptr %29, align 8, !tbaa !92
  %31 = add i64 %.pre26, 12
  %32 = getelementptr inbounds nuw i8, ptr %0, i64 64
  %33 = load ptr, ptr %32, align 8, !tbaa !17
  %34 = getelementptr inbounds nuw i8, ptr %0, i64 1280
  %35 = load ptr, ptr %34, align 8, !tbaa !102
  tail call void %25(i32 noundef 0, i32 noundef %27, i32 noundef 22, ptr noundef %30, i64 noundef %31, ptr noundef %33, ptr noundef %35) #9
  %.pre = load i64, ptr %7, align 8, !tbaa !79
  br label %36

36:                                               ; preds = %23, %26, %2
  %37 = phi i64 [ %.pre26, %23 ], [ %.pre, %26 ], [ %8, %2 ]
  store i64 %37, ptr %1, align 8, !tbaa !98
  br label %38

38:                                               ; preds = %18, %16, %36
  %.021 = phi i32 [ 1, %36 ], [ 0, %16 ], [ 0, %18 ]
  ret i32 %.021
}